; Function Attrs: mustprogress nofree norecurse nosync nounwind willreturn memory(read, inaccessiblemem: none) uwtable
define noundef zeroext i1 @_ZN5arrow7compute8internal10HasDecimalERKSt6vectorINS_10TypeHolderESaIS3_EE(ptr noundef nonnull readonly align 8 captures(none) dereferenceable(24) %types) local_unnamed_addr #9 {
entry:
  %0 = load ptr, ptr %types, align 8
  %_M_finish.i = getelementptr inbounds nuw i8, ptr %types, i64 8
  %1 = load ptr, ptr %_M_finish.i, align 8
  %cmp.i4.not = icmp eq ptr %0, %1
  br i1 %cmp.i4.not, label %return, label %for.body

for.body:                                         ; preds = %entry, %for.body
  %__begin2.sroa.0.05 = phi ptr [ %incdec.ptr.i, %for.body ], [ %0, %entry ]
  %2 = load ptr, ptr %__begin2.sroa.0.05, align 8
  %id_.i.i = getelementptr inbounds nuw i8, ptr %2, i64 40
  %3 = load i32, ptr %id_.i.i, align 8
  %type_id.off.i = add i32 %3, -23
  %switch.i = icmp ult i32 %type_id.off.i, 2
  %incdec.ptr.i = getelementptr inbounds nuw i8, ptr %__begin2.sroa.0.05, i64 24
  %cmp.i.not = icmp eq ptr %incdec.ptr.i, %1
  %or.cond = select i1 %switch.i, i1 true, i1 %cmp.i.not
  br i1 %or.cond, label %return, label %for.body

return:                                           ; preds = %for.body, %entry
  %cmp.i.lcssa = phi i1 [ false, %entry ], [ %switch.i, %for.body ]
  ret i1 %cmp.i.lcssa
}